target datalayout = "e-m:e-p270:32:32-p271:32:32-p272:64:64-i64:64-i128:128-f80:128-n8:16:32:64-S128"
target triple = "x86_64-pc-linux-gnu"

%struct.RStruct = type { %struct.RBasic, %union.anon }
%struct.RBasic = type { i64, i64 }
%union.anon = type { %struct.anon }
%struct.anon = type { i64, ptr }
%union.anon.3 = type { double }

@is_integer_p.rbimpl_id = internal global i64 0, align 8
@.str.45 = private unnamed_addr constant [9 x i8] c"integer?\00", align 1

; Function Attrs: inlinehint nounwind sspstrong willreturn memory(none) uwtable
define internal zeroext i1 @RB_IMMEDIATE_P(i64 noundef %0) #4 {
  %2 = alloca i64, align 8
  store i64 %0, ptr %2, align 8, !tbaa !7
  %3 = load i64, ptr %2, align 8, !tbaa !7
  %4 = and i64 %3, 7
  %5 = icmp ne i64 %4, 0
  ret i1 %5
}

; Function Attrs: inlinehint nounwind sspstrong willreturn memory(read) uwtable
define internal i64 @RB_FL_TEST_RAW(i64 noundef %0, i64 noundef %1) #7 {
  %3 = alloca i64, align 8
  %4 = alloca i64, align 8
  store i64 %0, ptr %3, align 8, !tbaa !7
  store i64 %1, ptr %4, align 8, !tbaa !7
  %5 = load i64, ptr %3, align 8, !tbaa !7
  %6 = inttoptr i64 %5 to ptr
  %7 = getelementptr inbounds nuw %struct.RBasic, ptr %6, i32 0, i32 0
  %8 = load i64, ptr %7, align 8, !tbaa !44
  %9 = load i64, ptr %4, align 8, !tbaa !7
  %10 = and i64 %8, %9
  ret i64 %10
}

; Function Attrs: inlinehint nounwind sspstrong willreturn memory(read) uwtable
define internal i64 @rb_intern_const(ptr noundef nonnull %0) #7 {
  %2 = alloca ptr, align 8
  %3 = alloca i64, align 8
  store ptr %0, ptr %2, align 8, !tbaa !19
  call void @llvm.lifetime.start.p0(i64 8, ptr %3) #18
  %4 = load ptr, ptr %2, align 8, !tbaa !19
  %5 = call i64 @strlen(ptr noundef %4) #21
  store i64 %5, ptr %3, align 8, !tbaa !7
  %6 = load ptr, ptr %2, align 8, !tbaa !19
  %7 = load i64, ptr %3, align 8, !tbaa !7
  %8 = call i64 @rb_intern2(ptr noundef %6, i64 noundef %7)
  call void @llvm.lifetime.end.p0(i64 8, ptr %3) #18
  ret i64 %8
}

; Function Attrs: inlinehint nounwind sspstrong willreturn memory(read) uwtable
define internal i32 @RB_BUILTIN_TYPE(i64 noundef %0) #7 {
  %2 = alloca i64, align 8
  %3 = alloca i64, align 8
  store i64 %0, ptr %2, align 8, !tbaa !7
  call void @llvm.lifetime.start.p0(i64 8, ptr %3) #18
  %4 = load i64, ptr %2, align 8, !tbaa !7
  %5 = inttoptr i64 %4 to ptr
  %6 = getelementptr inbounds nuw %struct.RBasic, ptr %5, i32 0, i32 0
  %7 = load i64, ptr %6, align 8, !tbaa !44
  %8 = and i64 %7, 31
  store i64 %8, ptr %3, align 8, !tbaa !7
  %9 = load i64, ptr %3, align 8, !tbaa !7
  %10 = trunc i64 %9 to i32
  call void @llvm.lifetime.end.p0(i64 8, ptr %3) #18
  ret i32 %10
}

; Function Attrs: inlinehint nounwind sspstrong willreturn memory(none) uwtable
define internal zeroext i1 @RB_SPECIAL_CONST_P(i64 noundef %0) #4 {
  %2 = alloca i64, align 8
  store i64 %0, ptr %2, align 8, !tbaa !7
  %3 = load i64, ptr %2, align 8, !tbaa !7
  %4 = icmp eq i64 %3, 0
  br i1 %4, label %8, label %5

5:                                                ; preds = %1
  %6 = load i64, ptr %2, align 8, !tbaa !7
  %7 = call zeroext i1 @RB_IMMEDIATE_P(i64 noundef %6) #19
  br label %8

8:                                                ; preds = %5, %1
  %9 = phi i1 [ true, %1 ], [ %7, %5 ]
  ret i1 %9
}

; Function Attrs: inlinehint nounwind sspstrong willreturn memory(none) uwtable
define internal zeroext i1 @RB_FIXNUM_P(i64 noundef %0) #4 {
  %2 = alloca i64, align 8
  store i64 %0, ptr %2, align 8, !tbaa !7
  %3 = load i64, ptr %2, align 8, !tbaa !7
  %4 = and i64 %3, 1
  %5 = icmp ne i64 %4, 0
  ret i1 %5
}

; Function Attrs: inlinehint nounwind sspstrong uwtable
define internal ptr @RSTRUCT_CONST_PTR(i64 noundef %0) #3 {
  %2 = alloca ptr, align 8
  %3 = alloca i64, align 8
  %4 = alloca ptr, align 8
  %5 = alloca i32, align 4
  store i64 %0, ptr %3, align 8, !tbaa !7
  call void @llvm.lifetime.start.p0(i64 8, ptr %4) #18
  %6 = load i64, ptr %3, align 8, !tbaa !7
  %7 = inttoptr i64 %6 to ptr
  store ptr %7, ptr %4, align 8, !tbaa !42
  %8 = load i64, ptr %3, align 8, !tbaa !7
  %9 = call i64 @RB_FL_TEST_RAW(i64 noundef %8, i64 noundef 1040384) #21
  %10 = icmp ne i64 %9, 0
  br i1 %10, label %11, label %15

11:                                               ; preds = %1
  %12 = load ptr, ptr %4, align 8, !tbaa !42
  %13 = getelementptr inbounds nuw %struct.RStruct, ptr %12, i32 0, i32 1
  %14 = getelementptr inbounds [1 x i64], ptr %13, i64 0, i64 0
  store ptr %14, ptr %2, align 8
  store i32 1, ptr %5, align 4
  br label %20

15:                                               ; preds = %1
  %16 = load ptr, ptr %4, align 8, !tbaa !42
  %17 = getelementptr inbounds nuw %struct.RStruct, ptr %16, i32 0, i32 1
  %18 = getelementptr inbounds nuw %struct.anon, ptr %17, i32 0, i32 1
  %19 = load ptr, ptr %18, align 8, !tbaa !18
  store ptr %19, ptr %2, align 8
  store i32 1, ptr %5, align 4
  br label %20

20:                                               ; preds = %15, %11
  call void @llvm.lifetime.end.p0(i64 8, ptr %4) #18
  %21 = load ptr, ptr %2, align 8
  ret ptr %21
}

; Function Attrs: inlinehint nounwind sspstrong willreturn memory(none) uwtable
define internal zeroext i1 @RB_UNDEF_P(i64 noundef %0) #4 {
  %2 = alloca i64, align 8
  store i64 %0, ptr %2, align 8, !tbaa !7
  %3 = load i64, ptr %2, align 8, !tbaa !7
  %4 = icmp eq i64 %3, 36
  ret i1 %4
}

; Function Attrs: inlinehint nounwind sspstrong willreturn memory(none) uwtable
define internal zeroext i1 @RB_TEST(i64 noundef %0) #4 {
  %2 = alloca i64, align 8
  store i64 %0, ptr %2, align 8, !tbaa !7
  %3 = load i64, ptr %2, align 8, !tbaa !7
  %4 = and i64 %3, -5
  %5 = icmp ne i64 %4, 0
  ret i1 %5
}

; Function Attrs: inlinehint nounwind sspstrong memory(argmem: readwrite, inaccessiblemem: readwrite) uwtable
define internal i64 @rbimpl_intern_const(ptr noundef nonnull %0, ptr noundef nonnull %1) #5 {
  %3 = alloca ptr, align 8
  %4 = alloca ptr, align 8
  store ptr %0, ptr %3, align 8, !tbaa !13
  store ptr %1, ptr %4, align 8, !tbaa !19
  br label %5

5:                                                ; preds = %10, %2
  %6 = load ptr, ptr %3, align 8, !tbaa !13
  %7 = load i64, ptr %6, align 8, !tbaa !7
  %8 = icmp ne i64 %7, 0
  %9 = xor i1 %8, true
  br i1 %9, label %10, label %14

10:                                               ; preds = %5
  %11 = load ptr, ptr %4, align 8, !tbaa !19
  %12 = call i64 @rb_intern_const(ptr noundef %11) #21
  %13 = load ptr, ptr %3, align 8, !tbaa !13
  store i64 %12, ptr %13, align 8, !tbaa !7
  br label %5, !llvm.loop !21

14:                                               ; preds = %5
  %15 = load ptr, ptr %3, align 8, !tbaa !13
  %16 = load i64, ptr %15, align 8, !tbaa !7
  ret i64 %16
}

; Function Attrs: inlinehint nounwind sspstrong willreturn memory(read) uwtable
define internal zeroext i1 @rb_integer_type_p(i64 noundef %0) #7 {
  %2 = alloca i1, align 1
  %3 = alloca i64, align 8
  store i64 %0, ptr %3, align 8, !tbaa !7
  %4 = load i64, ptr %3, align 8, !tbaa !7
  %5 = call zeroext i1 @RB_FIXNUM_P(i64 noundef %4) #19
  br i1 %5, label %6, label %7

6:                                                ; preds = %1
  store i1 true, ptr %2, align 1
  br label %15

7:                                                ; preds = %1
  %8 = load i64, ptr %3, align 8, !tbaa !7
  %9 = call zeroext i1 @RB_SPECIAL_CONST_P(i64 noundef %8) #19
  br i1 %9, label %10, label %11

10:                                               ; preds = %7
  store i1 false, ptr %2, align 1
  br label %15

11:                                               ; preds = %7
  %12 = load i64, ptr %3, align 8, !tbaa !7
  %13 = call i32 @RB_BUILTIN_TYPE(i64 noundef %12) #21
  %14 = icmp eq i32 %13, 10
  store i1 %14, ptr %2, align 1
  br label %15

15:                                               ; preds = %11, %10, %6
  %16 = load i1, ptr %2, align 1
  ret i1 %16
}

; Function Attrs: inlinehint nounwind sspstrong uwtable
define internal i64 @RUBY_BIT_ROTL(i64 noundef %0, i32 noundef %1) #3 {
  %3 = alloca i64, align 8
  %4 = alloca i32, align 4
  store i64 %0, ptr %3, align 8, !tbaa !7
  store i32 %1, ptr %4, align 4, !tbaa !11
  %5 = load i64, ptr %3, align 8, !tbaa !7
  %6 = load i32, ptr %4, align 4, !tbaa !11
  %7 = sext i32 %6 to i64
  %8 = call i64 @llvm.fshl.i64(i64 %5, i64 %5, i64 %7)
  ret i64 %8
}

; Function Attrs: inlinehint nounwind sspstrong uwtable
define internal i64 @internal_RSTRUCT_GET(i64 noundef %0, i64 noundef %1) #3 {
  %3 = alloca i64, align 8
  %4 = alloca i64, align 8
  store i64 %0, ptr %3, align 8, !tbaa !7
  store i64 %1, ptr %4, align 8, !tbaa !7
  %5 = load i64, ptr %3, align 8, !tbaa !7
  %6 = call ptr @RSTRUCT_CONST_PTR(i64 noundef %5)
  %7 = load i64, ptr %4, align 8, !tbaa !7
  %8 = getelementptr i64, ptr %6, i64 %7
  %9 = load i64, ptr %8, align 8, !tbaa !7
  ret i64 %9
}

; Function Attrs: nounwind sspstrong uwtable
define internal i32 @is_integer_p(i64 noundef %0) #0 {
  %2 = alloca i32, align 4
  %3 = alloca i64, align 8
  %4 = alloca i64, align 8
  %5 = alloca i64, align 8
  store i64 %0, ptr %3, align 8, !tbaa !7
  %6 = load i64, ptr %3, align 8, !tbaa !7
  %7 = call zeroext i1 @rb_integer_type_p(i64 noundef %6) #21
  br i1 %7, label %8, label %9

8:                                                ; preds = %1
  store i32 1, ptr %2, align 4
  br label %26

9:                                                ; preds = %1
  call void @llvm.lifetime.start.p0(i64 8, ptr %4) #18
  call void @llvm.lifetime.start.p0(i64 8, ptr %5) #18
  br label %10

10:                                               ; preds = %9
  %11 = call i64 @rbimpl_intern_const(ptr noundef @is_integer_p.rbimpl_id, ptr noundef @.str.45) #22
  store i64 %11, ptr %4, align 8, !tbaa !7
  br label %12

12:                                               ; preds = %10
  br label %13

13:                                               ; preds = %12
  %14 = load i64, ptr %3, align 8, !tbaa !7
  %15 = load i64, ptr %4, align 8, !tbaa !7
  %16 = call i64 @rb_check_funcall(i64 noundef %14, i64 noundef %15, i32 noundef 0, ptr noundef null)
  store i64 %16, ptr %5, align 8, !tbaa !7
  %17 = load i64, ptr %5, align 8, !tbaa !7
  %18 = call zeroext i1 @RB_TEST(i64 noundef %17) #19
  br i1 %18, label %19, label %23

19:                                               ; preds = %13
  %20 = load i64, ptr %5, align 8, !tbaa !7
  %21 = call zeroext i1 @RB_UNDEF_P(i64 noundef %20) #19
  %22 = xor i1 %21, true
  br label %23

23:                                               ; preds = %19, %13
  %24 = phi i1 [ false, %13 ], [ %22, %19 ]
  %25 = zext i1 %24 to i32
  store i32 %25, ptr %2, align 4
  call void @llvm.lifetime.end.p0(i64 8, ptr %5) #18
  call void @llvm.lifetime.end.p0(i64 8, ptr %4) #18
  br label %26

26:                                               ; preds = %23, %8
  %27 = load i32, ptr %2, align 4
  ret i32 %27
}

; Function Attrs: inlinehint nounwind sspstrong uwtable
define internal i64 @rb_float_new_inline(double noundef %0) #3 {
  %2 = alloca i64, align 8
  %3 = alloca double, align 8
  %4 = alloca %union.anon.3, align 8
  %5 = alloca i32, align 4
  %6 = alloca i32, align 4
  store double %0, ptr %3, align 8, !tbaa !60
  call void @llvm.lifetime.start.p0(i64 8, ptr %4) #18
  call void @llvm.lifetime.start.p0(i64 4, ptr %5) #18
  %7 = load double, ptr %3, align 8, !tbaa !60
  store double %7, ptr %4, align 8, !tbaa !18
  %8 = load i64, ptr %4, align 8, !tbaa !18
  %9 = lshr i64 %8, 60
  %10 = and i64 %9, 7
  %11 = trunc i64 %10 to i32
  store i32 %11, ptr %5, align 4, !tbaa !11
  %12 = load i64, ptr %4, align 8, !tbaa !18
  %13 = icmp ne i64 %12, 3458764513820540928
  br i1 %13, label %14, label %24

14:                                               ; preds = %1
  %15 = load i32, ptr %5, align 4, !tbaa !11
  %16 = sub i32 %15, 3
  %17 = and i32 %16, -2
  %18 = icmp ne i32 %17, 0
  br i1 %18, label %24, label %19

19:                                               ; preds = %14
  %20 = load i64, ptr %4, align 8, !tbaa !18
  %21 = call i64 @RUBY_BIT_ROTL(i64 noundef %20, i32 noundef 3)
  %22 = and i64 %21, -2
  %23 = or i64 %22, 2
  store i64 %23, ptr %2, align 8
  store i32 1, ptr %6, align 4
  br label %32

24:                                               ; preds = %14, %1
  %25 = load i64, ptr %4, align 8, !tbaa !18
  %26 = icmp eq i64 %25, 0
  br i1 %26, label %27, label %28

27:                                               ; preds = %24
  store i64 -9223372036854775806, ptr %2, align 8
  store i32 1, ptr %6, align 4
  br label %32

28:                                               ; preds = %24
  br label %29

29:                                               ; preds = %28
  %30 = load double, ptr %3, align 8, !tbaa !60
  %31 = call i64 @rb_float_new_in_heap(double noundef %30)
  store i64 %31, ptr %2, align 8
  store i32 1, ptr %6, align 4
  br label %32

32:                                               ; preds = %29, %27, %19
  call void @llvm.lifetime.end.p0(i64 4, ptr %5) #18
  call void @llvm.lifetime.end.p0(i64 8, ptr %4) #18
  %33 = load i64, ptr %2, align 8
  ret i64 %33
}

; Function Attrs: inlinehint nounwind sspstrong willreturn memory(none) uwtable
define internal zeroext i1 @RB_NIL_P(i64 noundef %0) #4 {
  %2 = alloca i64, align 8
  store i64 %0, ptr %2, align 8, !tbaa !7
  %3 = load i64, ptr %2, align 8, !tbaa !7
  %4 = icmp eq i64 %3, 4
  ret i1 %4
}

; Function Attrs: inlinehint nounwind sspstrong uwtable
define internal i64 @RANGE_END(i64 noundef %0) #3 {
  %2 = alloca i64, align 8
  store i64 %0, ptr %2, align 8, !tbaa !7
  %3 = load i64, ptr %2, align 8, !tbaa !7
  %4 = call i64 @internal_RSTRUCT_GET(i64 noundef %3, i64 noundef 1)
  ret i64 %4
}

; Function Attrs: inlinehint nounwind sspstrong uwtable
define internal i64 @RANGE_BEG(i64 noundef %0) #3 {
  %2 = alloca i64, align 8
  store i64 %0, ptr %2, align 8, !tbaa !7
  %3 = load i64, ptr %2, align 8, !tbaa !7
  %4 = inttoptr i64 %3 to ptr
  %5 = getelementptr inbounds nuw %struct.RStruct, ptr %4, i32 0, i32 1
  %6 = getelementptr [1 x i64], ptr %5, i64 0, i64 0
  %7 = load i64, ptr %6, align 8, !tbaa !18
  ret i64 %7
}

; Function Attrs: nounwind sspstrong uwtable
define internal i64 @range_count(i32 noundef %0, ptr noundef %1, i64 noundef %2) #0 {
  %4 = alloca i64, align 8
  %5 = alloca i32, align 4
  %6 = alloca ptr, align 8
  %7 = alloca i64, align 8
  %8 = alloca i64, align 8
  %9 = alloca i64, align 8
  %10 = alloca i32, align 4
  %11 = alloca i64, align 8
  store i32 %0, ptr %5, align 4, !tbaa !11
  store ptr %1, ptr %6, align 8, !tbaa !13
  store i64 %2, ptr %7, align 8, !tbaa !7
  %12 = load i32, ptr %5, align 4, !tbaa !11
  %13 = icmp ne i32 %12, 0
  br i1 %13, label %14, label %18

14:                                               ; preds = %3
  %15 = load i32, ptr %5, align 4, !tbaa !11
  %16 = load ptr, ptr %6, align 8, !tbaa !13
  %17 = call i64 @rb_call_super(i32 noundef %15, ptr noundef %16)
  store i64 %17, ptr %4, align 8
  br label %58

18:                                               ; preds = %3
  %19 = call i32 @rb_block_given_p()
  %20 = icmp ne i32 %19, 0
  br i1 %20, label %21, label %25

21:                                               ; preds = %18
  %22 = load i32, ptr %5, align 4, !tbaa !11
  %23 = load ptr, ptr %6, align 8, !tbaa !13
  %24 = call i64 @rb_call_super(i32 noundef %22, ptr noundef %23)
  store i64 %24, ptr %4, align 8
  br label %58

25:                                               ; preds = %18
  br label %26

26:                                               ; preds = %25
  call void @llvm.lifetime.start.p0(i64 8, ptr %8) #18
  %27 = load i64, ptr %7, align 8, !tbaa !7
  %28 = call i64 @RANGE_BEG(i64 noundef %27)
  store i64 %28, ptr %8, align 8, !tbaa !7
  call void @llvm.lifetime.start.p0(i64 8, ptr %9) #18
  %29 = load i64, ptr %7, align 8, !tbaa !7
  %30 = call i64 @RANGE_END(i64 noundef %29)
  store i64 %30, ptr %9, align 8, !tbaa !7
  %31 = load i64, ptr %8, align 8, !tbaa !7
  %32 = call zeroext i1 @RB_NIL_P(i64 noundef %31) #19
  br i1 %32, label %36, label %33

33:                                               ; preds = %26
  %34 = load i64, ptr %9, align 8, !tbaa !7
  %35 = call zeroext i1 @RB_NIL_P(i64 noundef %34) #19
  br i1 %35, label %36, label %38

36:                                               ; preds = %33, %26
  %37 = call i64 @rb_float_new_inline(double noundef 0x7FF0000000000000)
  store i64 %37, ptr %4, align 8
  store i32 1, ptr %10, align 4
  br label %57

38:                                               ; preds = %33
  %39 = load i64, ptr %8, align 8, !tbaa !7
  %40 = call i32 @is_integer_p(i64 noundef %39)
  %41 = icmp ne i32 %40, 0
  br i1 %41, label %42, label %53

42:                                               ; preds = %38
  call void @llvm.lifetime.start.p0(i64 8, ptr %11) #18
  %43 = load i64, ptr %7, align 8, !tbaa !7
  %44 = call i64 @range_size(i64 noundef %43)
  store i64 %44, ptr %11, align 8, !tbaa !7
  %45 = load i64, ptr %11, align 8, !tbaa !7
  %46 = call zeroext i1 @RB_NIL_P(i64 noundef %45) #19
  br i1 %46, label %49, label %47

47:                                               ; preds = %42
  %48 = load i64, ptr %11, align 8, !tbaa !7
  store i64 %48, ptr %4, align 8
  store i32 1, ptr %10, align 4
  br label %50

49:                                               ; preds = %42
  store i32 0, ptr %10, align 4
  br label %50

50:                                               ; preds = %49, %47
  call void @llvm.lifetime.end.p0(i64 8, ptr %11) #18
  %51 = load i32, ptr %10, align 4
  switch i32 %51, label %57 [
    i32 0, label %52
  ]

52:                                               ; preds = %50
  br label %53

53:                                               ; preds = %52, %38
  %54 = load i32, ptr %5, align 4, !tbaa !11
  %55 = load ptr, ptr %6, align 8, !tbaa !13
  %56 = call i64 @rb_call_super(i32 noundef %54, ptr noundef %55)
  store i64 %56, ptr %4, align 8
  store i32 1, ptr %10, align 4
  br label %57

57:                                               ; preds = %53, %50, %36
  call void @llvm.lifetime.end.p0(i64 8, ptr %9) #18
  call void @llvm.lifetime.end.p0(i64 8, ptr %8) #18
  br label %58

58:                                               ; preds = %57, %21, %14
  %59 = load i64, ptr %4, align 8
  ret i64 %59
}