; Function Attrs: nounwind sspstrong uwtable
define internal i64 @range_count(i32 noundef %0, ptr noundef %1, i64 noundef %2) #0 {
  %.not = icmp eq i32 %0, 0
  br i1 %.not, label %6, label %4

4:                                                ; preds = %3
  %5 = tail call i64 @rb_call_super(i32 noundef %0, ptr noundef %1) #13
  br label %41

6:                                                ; preds = %3
  %7 = tail call i32 @rb_block_given_p() #13
  %.not19 = icmp eq i32 %7, 0
  br i1 %.not19, label %10, label %8

8:                                                ; preds = %6
  %9 = tail call i64 @rb_call_super(i32 noundef 0, ptr noundef %1) #13
  br label %41

10:                                               ; preds = %6
  %11 = inttoptr i64 %2 to ptr
  %12 = getelementptr inbounds nuw i8, ptr %11, i64 16
  %13 = load i64, ptr %12, align 8, !tbaa !13
  %14 = load i64, ptr %11, align 8, !tbaa !11
  %15 = and i64 %14, 1040384
  %.not.i.i.i = icmp eq i64 %15, 0
  br i1 %.not.i.i.i, label %16, label %RANGE_END.exit

16:                                               ; preds = %10
  %17 = getelementptr inbounds nuw i8, ptr %11, i64 24
  %18 = load ptr, ptr %17, align 8, !tbaa !13
  br label %RANGE_END.exit

RANGE_END.exit:                                   ; preds = %10, %16
  %.0.i.i.i = phi ptr [ %18, %16 ], [ %12, %10 ]
  %19 = getelementptr i8, ptr %.0.i.i.i, i64 8
  %20 = load i64, ptr %19, align 8, !tbaa !7
  %21 = icmp eq i64 %13, 4
  %22 = icmp eq i64 %20, 4
  %or.cond = select i1 %21, i1 true, i1 %22
  br i1 %or.cond, label %23, label %25

23:                                               ; preds = %RANGE_END.exit
  %24 = tail call i64 @rb_float_new_in_heap(double noundef 0x7FF0000000000000) #13
  br label %41

25:                                               ; preds = %RANGE_END.exit
  %26 = and i64 %13, 1
  %.not.i.i = icmp eq i64 %26, 0
  br i1 %.not.i.i, label %27, label %is_integer_p.exit.thread

27:                                               ; preds = %25
  %28 = icmp eq i64 %13, 0
  %29 = and i64 %13, 6
  %30 = icmp ne i64 %29, 0
  %31 = or i1 %28, %30
  br i1 %31, label %rb_integer_type_p.exit.thread8.i, label %rb_integer_type_p.exit.i

rb_integer_type_p.exit.i:                         ; preds = %27
  %32 = inttoptr i64 %13 to ptr
  %33 = load i64, ptr %32, align 8, !tbaa !11
  %34 = and i64 %33, 31
  %35 = icmp eq i64 %34, 10
  br i1 %35, label %is_integer_p.exit.thread, label %rb_integer_type_p.exit.thread8.i

rb_integer_type_p.exit.thread8.i:                 ; preds = %rb_integer_type_p.exit.i, %27
  %.pr.i.i = load i64, ptr @is_integer_p.rbimpl_id, align 8, !tbaa !7
  %.not4.i.i = icmp eq i64 %.pr.i.i, 0
  br i1 %.not4.i.i, label %.lr.ph.i.i, label %rbimpl_intern_const.exit.i

.lr.ph.i.i:                                       ; preds = %rb_integer_type_p.exit.thread8.i, %.lr.ph.i.i
  %36 = tail call i64 @rb_intern2(ptr noundef nonnull @.str.45, i64 noundef 8) #13
  store i64 %36, ptr @is_integer_p.rbimpl_id, align 8, !tbaa !7
  %.not.i6.i = icmp eq i64 %36, 0
  br i1 %.not.i6.i, label %.lr.ph.i.i, label %rbimpl_intern_const.exit.i, !llvm.loop !14

rbimpl_intern_const.exit.i:                       ; preds = %.lr.ph.i.i, %rb_integer_type_p.exit.thread8.i
  %.lcssa.i.i = phi i64 [ %.pr.i.i, %rb_integer_type_p.exit.thread8.i ], [ %36, %.lr.ph.i.i ]
  %37 = tail call i64 @rb_check_funcall(i64 noundef %13, i64 noundef %.lcssa.i.i, i32 noundef 0, ptr noundef null) #13
  switch i64 %37, label %is_integer_p.exit.thread [
    i64 36, label %is_integer_p.exit.thread23
    i64 4, label %is_integer_p.exit.thread23
    i64 0, label %is_integer_p.exit.thread23
  ]

is_integer_p.exit.thread:                         ; preds = %rbimpl_intern_const.exit.i, %25, %rb_integer_type_p.exit.i
  %38 = tail call i64 @range_size(i64 noundef %2)
  %39 = icmp eq i64 %38, 4
  br i1 %39, label %is_integer_p.exit.thread23, label %41

is_integer_p.exit.thread23:                       ; preds = %rbimpl_intern_const.exit.i, %rbimpl_intern_const.exit.i, %rbimpl_intern_const.exit.i, %is_integer_p.exit.thread
  %40 = tail call i64 @rb_call_super(i32 noundef 0, ptr noundef %1) #13
  br label %41

41:                                               ; preds = %23, %is_integer_p.exit.thread23, %is_integer_p.exit.thread, %8, %4
  %.0 = phi i64 [ %5, %4 ], [ %9, %8 ], [ %24, %23 ], [ %40, %is_integer_p.exit.thread23 ], [ %38, %is_integer_p.exit.thread ]
  ret i64 %.0
}